ccopy_reg
_reconstructor
p0
(c__main__
LogComressor
p1
c__builtin__
object
p2
Ntp3
Rp4
(dp5
S'_mins_and_maxs'
p6
(lp7
(lp8
F0.04879011875636829
aF10.127859149494666
aa(lp9
F-2.995733227228762
aF10.137938928731113
aa(lp10
F2.6318888469976125
aF6.03458390067692
aa(lp11
F1.098777708152219
aF5.718566393297984
aa(lp12
Fnan
aFnan
aa(lp13
F-2.7103100436239473
aF8.84965166178216
aa(lp14
F-3.681383447503487
aF8.745011118191881
aa(lp15
F-14.919963654215186
aF15.337460477559397
aa(lp16
F-5.2146697305973095
aF0.8219980913171346
aasb.